; Function Attrs: null_pointer_is_valid sspstrong uwtable
define internal fastcc i32 @mapi_dissect_element_RopReply_SetColumns(ptr noundef %0, i32 noundef %1, ptr noundef %2, ptr noundef %3, ptr noundef %4, ptr noundef %5) unnamed_addr #0 {
  %7 = alloca i8, align 1
  %8 = load i32, ptr @hf_mapi_RopReply_SetColumns, align 4
  %9 = getelementptr inbounds nuw i8, ptr %4, i64 26
  %10 = load i8, ptr %9, align 2, !range !9, !noundef !10
  store i8 1, ptr %9, align 2
  %.not.i = icmp eq ptr %3, null
  br i1 %.not.i, label %mapi_dissect_struct_SetColumns_repl.exit, label %11

11:                                               ; preds = %6
  %12 = tail call ptr @proto_tree_add_item(ptr noundef nonnull %3, i32 noundef %8, ptr noundef %0, i32 noundef %1, i32 noundef -1, i32 noundef 0)
  %13 = load i32, ptr @ett_mapi_SetColumns_repl, align 4
  %14 = tail call ptr @proto_item_add_subtree(ptr noundef %12, i32 noundef %13)
  br label %mapi_dissect_struct_SetColumns_repl.exit

mapi_dissect_struct_SetColumns_repl.exit:         ; preds = %6, %11
  %.020.i = phi ptr [ %14, %11 ], [ null, %6 ]
  %.0.i = phi ptr [ %12, %11 ], [ null, %6 ]
  %15 = load i32, ptr @hf_mapi_SetColumns_repl_TableStatus, align 4
  call void @llvm.lifetime.start.p0(i64 1, ptr nonnull %7) #6
  store i8 0, ptr %7, align 1
  %16 = call i32 @dissect_ndr_uint8(ptr noundef %0, i32 noundef %1, ptr noundef %2, ptr noundef %.020.i, ptr noundef %4, ptr noundef %5, i32 noundef %15, ptr noundef nonnull %7)
  call void @llvm.lifetime.end.p0(i64 1, ptr nonnull %7) #6
  %17 = sub i32 %16, %1
  call void @proto_item_set_len(ptr noundef %.0.i, i32 noundef %17)
  store i8 %10, ptr %9, align 2
  ret i32 %16
}